target datalayout = "e-m:e-p270:32:32-p271:32:32-p272:64:64-i64:64-i128:128-f80:128-n8:16:32:64-S128"
target triple = "x86_64-pc-linux-gnu"

%class.RecVolumes5 = type { %class.Array.8, ptr, ptr, ptr, ptr, i64, i32, i32, i32, ptr, i32, i32, ptr }
%class.Array.8 = type { ptr, i64, i64, i64 }
%struct.RecRSThreadData = type { ptr, ptr, i8, i32, ptr, i64, i64 }

; Function Attrs: mustprogress nounwind uwtable
define linkonce_odr void @_ZN5ArrayI10RecVolItemE9CleanDataEv(ptr noundef nonnull align 8 dereferenceable(32) %0) #2 comdat align 2 {
  %2 = alloca ptr, align 8
  store ptr %0, ptr %2, align 8
  %3 = load ptr, ptr %2, align 8
  %4 = getelementptr inbounds %class.Array.8, ptr %3, i32 0, i32 0
  store ptr null, ptr %4, align 8
  %5 = getelementptr inbounds %class.Array.8, ptr %3, i32 0, i32 1
  store i64 0, ptr %5, align 8
  %6 = getelementptr inbounds %class.Array.8, ptr %3, i32 0, i32 2
  store i64 0, ptr %6, align 8
  %7 = getelementptr inbounds %class.Array.8, ptr %3, i32 0, i32 3
  store i64 0, ptr %7, align 8
  ret void
}

; Function Attrs: mustprogress nounwind uwtable
define linkonce_odr void @_ZN5ArrayI10RecVolItemED2Ev(ptr noundef nonnull align 8 dereferenceable(32) %0) unnamed_addr #2 comdat align 2 {
  %2 = alloca ptr, align 8
  store ptr %0, ptr %2, align 8
  %3 = load ptr, ptr %2, align 8
  %4 = getelementptr inbounds %class.Array.8, ptr %3, i32 0, i32 0
  %5 = load ptr, ptr %4, align 8
  %6 = icmp ne ptr %5, null
  br i1 %6, label %7, label %10

7:                                                ; preds = %1
  %8 = getelementptr inbounds %class.Array.8, ptr %3, i32 0, i32 0
  %9 = load ptr, ptr %8, align 8
  call void @free(ptr noundef %9) #11
  br label %10

10:                                               ; preds = %7, %1
  ret void
}

; Function Attrs: mustprogress uwtable
define linkonce_odr void @_ZN5ArrayI10RecVolItemEC2Ev(ptr noundef nonnull align 8 dereferenceable(32) %0) unnamed_addr #0 comdat align 2 {
  %2 = alloca ptr, align 8
  store ptr %0, ptr %2, align 8
  %3 = load ptr, ptr %2, align 8
  call void @_ZN5ArrayI10RecVolItemE9CleanDataEv(ptr noundef nonnull align 8 dereferenceable(32) %3)
  ret void
}

; Function Attrs: mustprogress uwtable
define void @_ZN11RecVolumes5C2EP11CommandDatab(ptr noundef nonnull align 8 dereferenceable(112) %0, ptr noundef %1, i1 noundef zeroext %2) unnamed_addr #0 align 2 personality ptr @__gxx_personality_v0 {
  %4 = alloca ptr, align 8
  %5 = alloca ptr, align 8
  %6 = alloca i8, align 1
  %7 = alloca ptr, align 8
  %8 = alloca i32, align 4
  %9 = alloca i32, align 4
  store ptr %0, ptr %4, align 8
  store ptr %1, ptr %5, align 8
  %10 = zext i1 %2 to i8
  store i8 %10, ptr %6, align 1
  %11 = load ptr, ptr %4, align 8
  %12 = getelementptr inbounds %class.RecVolumes5, ptr %11, i32 0, i32 0
  call void @_ZN5ArrayI10RecVolItemEC2Ev(ptr noundef nonnull align 8 dereferenceable(32) %12)
  %13 = getelementptr inbounds %class.RecVolumes5, ptr %11, i32 0, i32 3
  store ptr null, ptr %13, align 8
  %14 = getelementptr inbounds %class.RecVolumes5, ptr %11, i32 0, i32 1
  store ptr null, ptr %14, align 8
  %15 = getelementptr inbounds %class.RecVolumes5, ptr %11, i32 0, i32 6
  store i32 0, ptr %15, align 8
  %16 = getelementptr inbounds %class.RecVolumes5, ptr %11, i32 0, i32 7
  store i32 0, ptr %16, align 4
  %17 = getelementptr inbounds %class.RecVolumes5, ptr %11, i32 0, i32 8
  store i32 0, ptr %17, align 8
  %18 = getelementptr inbounds %class.RecVolumes5, ptr %11, i32 0, i32 5
  store i64 0, ptr %18, align 8
  %19 = getelementptr inbounds %class.RecVolumes5, ptr %11, i32 0, i32 11
  store i32 1, ptr %19, align 4
  %20 = getelementptr inbounds %class.RecVolumes5, ptr %11, i32 0, i32 11
  %21 = load i32, ptr %20, align 4
  %22 = zext i32 %21 to i64
  %23 = call { i64, i1 } @llvm.umul.with.overflow.i64(i64 %22, i64 48)
  %24 = extractvalue { i64, i1 } %23, 1
  %25 = extractvalue { i64, i1 } %23, 0
  %26 = select i1 %24, i64 -1, i64 %25
  %27 = invoke noalias noundef nonnull ptr @_Znam(i64 noundef %26) #12
          to label %28 unwind label %51

28:                                               ; preds = %3
  %29 = getelementptr inbounds %class.RecVolumes5, ptr %11, i32 0, i32 12
  store ptr %27, ptr %29, align 8
  store i32 0, ptr %9, align 4
  br label %30

30:                                               ; preds = %48, %28
  %31 = load i32, ptr %9, align 4
  %32 = getelementptr inbounds %class.RecVolumes5, ptr %11, i32 0, i32 11
  %33 = load i32, ptr %32, align 4
  %34 = icmp ult i32 %31, %33
  br i1 %34, label %35, label %55

35:                                               ; preds = %30
  %36 = getelementptr inbounds %class.RecVolumes5, ptr %11, i32 0, i32 12
  %37 = load ptr, ptr %36, align 8
  %38 = load i32, ptr %9, align 4
  %39 = zext i32 %38 to i64
  %40 = getelementptr inbounds %struct.RecRSThreadData, ptr %37, i64 %39
  %41 = getelementptr inbounds %struct.RecRSThreadData, ptr %40, i32 0, i32 0
  store ptr %11, ptr %41, align 8
  %42 = getelementptr inbounds %class.RecVolumes5, ptr %11, i32 0, i32 12
  %43 = load ptr, ptr %42, align 8
  %44 = load i32, ptr %9, align 4
  %45 = zext i32 %44 to i64
  %46 = getelementptr inbounds %struct.RecRSThreadData, ptr %43, i64 %45
  %47 = getelementptr inbounds %struct.RecRSThreadData, ptr %46, i32 0, i32 1
  store ptr null, ptr %47, align 8
  br label %48

48:                                               ; preds = %35
  %49 = load i32, ptr %9, align 4
  %50 = add i32 %49, 1
  store i32 %50, ptr %9, align 4
  br label %30, !llvm.loop !34

51:                                               ; preds = %59, %3
  %52 = landingpad { ptr, i32 }
          cleanup
  %53 = extractvalue { ptr, i32 } %52, 0
  store ptr %53, ptr %7, align 8
  %54 = extractvalue { ptr, i32 } %52, 1
  store i32 %54, ptr %8, align 4
  call void @_ZN5ArrayI10RecVolItemED2Ev(ptr noundef nonnull align 8 dereferenceable(32) %12) #11
  br label %76

55:                                               ; preds = %30
  %56 = load i8, ptr %6, align 1
  %57 = trunc i8 %56 to i1
  br i1 %57, label %58, label %59

58:                                               ; preds = %55
  br label %75

59:                                               ; preds = %55
  %60 = invoke noalias noundef nonnull ptr @_Znam(i64 noundef 67108865) #12
          to label %61 unwind label %51

61:                                               ; preds = %59
  %62 = getelementptr inbounds %class.RecVolumes5, ptr %11, i32 0, i32 3
  store ptr %60, ptr %62, align 8
  %63 = getelementptr inbounds %class.RecVolumes5, ptr %11, i32 0, i32 3
  %64 = load ptr, ptr %63, align 8
  %65 = ptrtoint ptr %64 to i64
  %66 = getelementptr inbounds %class.RecVolumes5, ptr %11, i32 0, i32 3
  %67 = load ptr, ptr %66, align 8
  %68 = ptrtoint ptr %67 to i64
  %69 = xor i64 %68, -1
  %70 = add i64 %69, 1
  %71 = and i64 %70, 0
  %72 = add i64 %65, %71
  %73 = inttoptr i64 %72 to ptr
  %74 = getelementptr inbounds %class.RecVolumes5, ptr %11, i32 0, i32 4
  store ptr %73, ptr %74, align 8
  br label %75

75:                                               ; preds = %61, %58
  ret void

76:                                               ; preds = %51
  %77 = load ptr, ptr %7, align 8
  %78 = load i32, ptr %8, align 4
  %79 = insertvalue { ptr, i32 } poison, ptr %77, 0
  %80 = insertvalue { ptr, i32 } %79, i32 %78, 1
  resume { ptr, i32 } %80
}