; Function Attrs: mustprogress uwtable
define void @_ZN11RecVolumes5C2EP11CommandDatab(ptr noundef nonnull align 8 dereferenceable(112) %0, ptr nocapture readnone %1, i1 noundef zeroext %2) unnamed_addr #0 align 2 personality ptr @__gxx_personality_v0 {
  %4 = getelementptr inbounds i8, ptr %0, i64 48
  store ptr null, ptr %4, align 8
  %5 = getelementptr inbounds i8, ptr %0, i64 64
  %6 = getelementptr inbounds i8, ptr %0, i64 100
  tail call void @llvm.memset.p0.i64(ptr noundef nonnull align 8 dereferenceable(40) %0, i8 0, i64 40, i1 false)
  tail call void @llvm.memset.p0.i64(ptr noundef nonnull align 8 dereferenceable(20) %5, i8 0, i64 20, i1 false)
  store i32 1, ptr %6, align 4
  %7 = invoke noalias noundef nonnull dereferenceable(48) ptr @_Znam(i64 noundef 48) #15
          to label %.lr.ph.preheader unwind label %16

.lr.ph.preheader:                                 ; preds = %3
  %8 = getelementptr inbounds i8, ptr %0, i64 104
  store ptr %7, ptr %8, align 8
  br label %.lr.ph

.lr.ph:                                           ; preds = %.lr.ph.preheader, %.lr.ph
  %indvars.iv = phi i64 [ 0, %.lr.ph.preheader ], [ %indvars.iv.next, %.lr.ph ]
  %9 = load ptr, ptr %8, align 8
  %10 = getelementptr inbounds %struct.RecRSThreadData, ptr %9, i64 %indvars.iv
  store ptr %0, ptr %10, align 8
  %11 = load ptr, ptr %8, align 8
  %12 = getelementptr inbounds %struct.RecRSThreadData, ptr %11, i64 %indvars.iv, i32 1
  store ptr null, ptr %12, align 8
  %indvars.iv.next = add nuw nsw i64 %indvars.iv, 1
  %13 = load i32, ptr %6, align 4
  %14 = zext i32 %13 to i64
  %15 = icmp ult i64 %indvars.iv.next, %14
  br i1 %15, label %.lr.ph, label %._crit_edge, !llvm.loop !32

16:                                               ; preds = %20, %3
  %17 = landingpad { ptr, i32 }
          cleanup
  %18 = load ptr, ptr %0, align 8
  %.not.i = icmp eq ptr %18, null
  br i1 %.not.i, label %_ZN5ArrayI10RecVolItemED2Ev.exit, label %19

19:                                               ; preds = %16
  tail call void @free(ptr noundef nonnull %18) #14
  br label %_ZN5ArrayI10RecVolItemED2Ev.exit

_ZN5ArrayI10RecVolItemED2Ev.exit:                 ; preds = %16, %19
  resume { ptr, i32 } %17

._crit_edge:                                      ; preds = %.lr.ph
  br i1 %2, label %24, label %20

20:                                               ; preds = %._crit_edge
  %21 = invoke noalias noundef nonnull dereferenceable(67108865) ptr @_Znam(i64 noundef 67108865) #15
          to label %22 unwind label %16

22:                                               ; preds = %20
  store ptr %21, ptr %4, align 8
  %23 = getelementptr inbounds i8, ptr %0, i64 56
  store ptr %21, ptr %23, align 8
  br label %24

24:                                               ; preds = %._crit_edge, %22
  ret void
}